; Function Attrs: mustprogress uwtable
define i64 @_ZN8QuantLib16UpfrontCdsHelper11upfrontDateEv(ptr noundef nonnull align 8 dereferenceable(512) %this) local_unnamed_addr #8 align 2 {
entry:
  %calendar_ = getelementptr inbounds nuw i8, ptr %this, i64 200
  %evaluationDate_ = getelementptr inbounds nuw i8, ptr %this, i64 176
  %upfrontSettlementDays_ = getelementptr inbounds nuw i8, ptr %this, i64 488
  %0 = load i32, ptr %upfrontSettlementDays_, align 8, !tbaa !186
  %paymentConvention_ = getelementptr inbounds nuw i8, ptr %this, i64 220
  %1 = load i32, ptr %paymentConvention_, align 4, !tbaa !96
  %call = tail call i64 @_ZNK8QuantLib8Calendar7advanceERKNS_4DateEiNS_8TimeUnitENS_21BusinessDayConventionEb(ptr noundef nonnull align 8 dereferenceable(16) %calendar_, ptr noundef nonnull align 8 dereferenceable(8) %evaluationDate_, i32 noundef %0, i32 noundef 0, i32 noundef %1, i1 noundef zeroext false)
  ret i64 %call
}